; Function Attrs: mustprogress nofree norecurse nounwind willreturn memory(readwrite, inaccessiblemem: none) uwtable
define internal void @_ZN7rocksdb12_GLOBAL__N_115HashSkipListRep8Iterator4NextEv(ptr nocapture noundef nonnull align 8 dereferenceable(80) %this) unnamed_addr #13 align 2 {
entry:
  %node_.i = getelementptr inbounds i8, ptr %this, i64 24
  %0 = load ptr, ptr %node_.i, align 8
  %next_.i.i = getelementptr inbounds i8, ptr %0, i64 8
  %1 = load atomic i64, ptr %next_.i.i acquire, align 8
  %atomic-temp.i.0.i.i.i = inttoptr i64 %1 to ptr
  store ptr %atomic-temp.i.0.i.i.i, ptr %node_.i, align 8
  ret void
}